target datalayout = "e-m:e-p270:32:32-p271:32:32-p272:64:64-i64:64-i128:128-f80:128-n8:16:32:64-S128"
target triple = "x86_64-unknown-linux-gnu"

%"class.cvc5::internal::NodeTemplate" = type { ptr }
%"class.cvc5::internal::theory::quantifiers::EnumStreamPermutation" = type <{ %"class.cvc5::internal::EnvObj", ptr, %"class.std::map", %"class.std::map.0", i8, [7 x i8], %"class.cvc5::internal::NodeTemplate", %"class.std::unordered_set", %"class.std::vector", i32, [4 x i8] }>
%"class.cvc5::internal::EnvObj" = type { ptr, ptr }
%"class.std::map" = type { %"class.std::_Rb_tree" }
%"class.std::_Rb_tree" = type { %"struct.std::_Rb_tree<unsigned int, std::pair<const unsigned int, std::vector<cvc5::internal::NodeTemplate<true>>>, std::_Select1st<std::pair<const unsigned int, std::vector<cvc5::internal::NodeTemplate<true>>>>, std::less<unsigned int>>::_Rb_tree_impl" }
%"struct.std::_Rb_tree<unsigned int, std::pair<const unsigned int, std::vector<cvc5::internal::NodeTemplate<true>>>, std::_Select1st<std::pair<const unsigned int, std::vector<cvc5::internal::NodeTemplate<true>>>>, std::less<unsigned int>>::_Rb_tree_impl" = type { %"struct.std::_Rb_tree_key_compare", %"struct.std::_Rb_tree_header" }
%"struct.std::_Rb_tree_key_compare" = type { %"struct.std::less" }
%"struct.std::less" = type { i8 }
%"struct.std::_Rb_tree_header" = type { %"struct.std::_Rb_tree_node_base", i64 }
%"struct.std::_Rb_tree_node_base" = type { i32, ptr, ptr, ptr }
%"class.std::map.0" = type { %"class.std::_Rb_tree.1" }
%"class.std::_Rb_tree.1" = type { %"struct.std::_Rb_tree<cvc5::internal::NodeTemplate<true>, std::pair<const cvc5::internal::NodeTemplate<true>, std::map<cvc5::internal::TypeNode, cvc5::internal::NodeTemplate<true>>>, std::_Select1st<std::pair<const cvc5::internal::NodeTemplate<true>, std::map<cvc5::internal::TypeNode, cvc5::internal::NodeTemplate<true>>>>, std::less<cvc5::internal::NodeTemplate<true>>>::_Rb_tree_impl" }
%"struct.std::_Rb_tree<cvc5::internal::NodeTemplate<true>, std::pair<const cvc5::internal::NodeTemplate<true>, std::map<cvc5::internal::TypeNode, cvc5::internal::NodeTemplate<true>>>, std::_Select1st<std::pair<const cvc5::internal::NodeTemplate<true>, std::map<cvc5::internal::TypeNode, cvc5::internal::NodeTemplate<true>>>>, std::less<cvc5::internal::NodeTemplate<true>>>::_Rb_tree_impl" = type { %"struct.std::_Rb_tree_key_compare.5", %"struct.std::_Rb_tree_header" }
%"struct.std::_Rb_tree_key_compare.5" = type { %"struct.std::less.6" }
%"struct.std::less.6" = type { i8 }
%"class.std::unordered_set" = type { %"class.std::_Hashtable" }
%"class.std::_Hashtable" = type { ptr, i64, %"struct.std::__detail::_Hash_node_base", i64, %"struct.std::__detail::_Prime_rehash_policy", ptr }
%"struct.std::__detail::_Hash_node_base" = type { ptr }
%"struct.std::__detail::_Prime_rehash_policy" = type { float, i64 }
%"class.std::vector" = type { %"struct.std::_Vector_base" }
%"struct.std::_Vector_base" = type { %"struct.std::_Vector_base<cvc5::internal::theory::quantifiers::EnumStreamPermutation::PermutationState, std::allocator<cvc5::internal::theory::quantifiers::EnumStreamPermutation::PermutationState>>::_Vector_impl" }
%"struct.std::_Vector_base<cvc5::internal::theory::quantifiers::EnumStreamPermutation::PermutationState, std::allocator<cvc5::internal::theory::quantifiers::EnumStreamPermutation::PermutationState>>::_Vector_impl" = type { %"struct.std::_Vector_base<cvc5::internal::theory::quantifiers::EnumStreamPermutation::PermutationState, std::allocator<cvc5::internal::theory::quantifiers::EnumStreamPermutation::PermutationState>>::_Vector_impl_data" }
%"struct.std::_Vector_base<cvc5::internal::theory::quantifiers::EnumStreamPermutation::PermutationState, std::allocator<cvc5::internal::theory::quantifiers::EnumStreamPermutation::PermutationState>>::_Vector_impl_data" = type { ptr, ptr, ptr }
%"class.cvc5::internal::TypeNode" = type { ptr }
%"class.cvc5::internal::theory::quantifiers::EnumStreamSubstitution" = type <{ %"class.cvc5::internal::EnvObj", ptr, %"class.cvc5::internal::TypeNode", %"class.cvc5::internal::NodeTemplate", %"class.std::map", %"class.std::map.0", %"class.cvc5::internal::NodeTemplate", %"class.std::unordered_set", %"class.cvc5::internal::theory::quantifiers::EnumStreamPermutation", %"class.std::vector.543", i32, [4 x i8] }>
%"class.std::vector.543" = type { %"struct.std::_Vector_base.544" }
%"struct.std::_Vector_base.544" = type { %"struct.std::_Vector_base<cvc5::internal::theory::quantifiers::EnumStreamSubstitution::CombinationState, std::allocator<cvc5::internal::theory::quantifiers::EnumStreamSubstitution::CombinationState>>::_Vector_impl" }
%"struct.std::_Vector_base<cvc5::internal::theory::quantifiers::EnumStreamSubstitution::CombinationState, std::allocator<cvc5::internal::theory::quantifiers::EnumStreamSubstitution::CombinationState>>::_Vector_impl" = type { %"struct.std::_Vector_base<cvc5::internal::theory::quantifiers::EnumStreamSubstitution::CombinationState, std::allocator<cvc5::internal::theory::quantifiers::EnumStreamSubstitution::CombinationState>>::_Vector_impl_data" }
%"struct.std::_Vector_base<cvc5::internal::theory::quantifiers::EnumStreamSubstitution::CombinationState, std::allocator<cvc5::internal::theory::quantifiers::EnumStreamSubstitution::CombinationState>>::_Vector_impl_data" = type { ptr, ptr, ptr }
%"class.cvc5::internal::theory::quantifiers::EnumStreamConcrete" = type { %"class.cvc5::internal::theory::quantifiers::EnumValGenerator", %"class.cvc5::internal::theory::quantifiers::EnumStreamSubstitution", %"class.cvc5::internal::NodeTemplate" }
%"class.cvc5::internal::theory::quantifiers::EnumValGenerator" = type { %"class.cvc5::internal::EnvObj" }

; Function Attrs: mustprogress uwtable
define linkonce_odr hidden void @_ZN4cvc58internal4expr9NodeValue3incEv(ptr noundef nonnull align 8 dereferenceable(16) %this) #4 comdat align 2 {
entry:
  %this.addr = alloca ptr, align 8
  store ptr %this, ptr %this.addr, align 8
  %this1 = load ptr, ptr %this.addr, align 8
  %bf.load = load i64, ptr %this1, align 8
  %bf.lshr = lshr i64 %bf.load, 40
  %bf.clear = and i64 %bf.lshr, 1048575
  %bf.cast = trunc i64 %bf.clear to i32
  %cmp = icmp ult i32 %bf.cast, 1048574
  br i1 %cmp, label %if.then, label %if.else

if.then:                                          ; preds = %entry
  %bf.load2 = load i64, ptr %this1, align 8
  %bf.lshr3 = lshr i64 %bf.load2, 40
  %bf.clear4 = and i64 %bf.lshr3, 1048575
  %bf.cast5 = trunc i64 %bf.clear4 to i32
  %inc = add i32 %bf.cast5, 1
  %0 = zext i32 %inc to i64
  %bf.load6 = load i64, ptr %this1, align 8
  %bf.value = and i64 %0, 1048575
  %bf.shl = shl i64 %bf.value, 40
  %bf.clear7 = and i64 %bf.load6, -1152920405095219201
  %bf.set = or i64 %bf.clear7, %bf.shl
  store i64 %bf.set, ptr %this1, align 8
  br label %if.end25

if.else:                                          ; preds = %entry
  %bf.load8 = load i64, ptr %this1, align 8
  %bf.lshr9 = lshr i64 %bf.load8, 40
  %bf.clear10 = and i64 %bf.lshr9, 1048575
  %bf.cast11 = trunc i64 %bf.clear10 to i32
  %cmp12 = icmp eq i32 %bf.cast11, 1048574
  br i1 %cmp12, label %if.then13, label %if.end

if.then13:                                        ; preds = %if.else
  %bf.load14 = load i64, ptr %this1, align 8
  %bf.lshr15 = lshr i64 %bf.load14, 40
  %bf.clear16 = and i64 %bf.lshr15, 1048575
  %bf.cast17 = trunc i64 %bf.clear16 to i32
  %inc18 = add i32 %bf.cast17, 1
  %1 = zext i32 %inc18 to i64
  %bf.load19 = load i64, ptr %this1, align 8
  %bf.value20 = and i64 %1, 1048575
  %bf.shl21 = shl i64 %bf.value20, 40
  %bf.clear22 = and i64 %bf.load19, -1152920405095219201
  %bf.set23 = or i64 %bf.clear22, %bf.shl21
  store i64 %bf.set23, ptr %this1, align 8
  call void @_ZN4cvc58internal4expr9NodeValue20markRefCountMaxedOutEv(ptr noundef nonnull align 8 dereferenceable(16) %this1)
  br label %if.end

if.end:                                           ; preds = %if.then13, %if.else
  br label %if.end25

if.end25:                                         ; preds = %if.end, %if.then
  ret void
}

; Function Attrs: mustprogress uwtable
define linkonce_odr hidden void @_ZN4cvc58internal12NodeTemplateILb1EEC2ERKS2_(ptr noundef nonnull align 8 dereferenceable(8) %this, ptr noundef nonnull align 8 dereferenceable(8) %e) unnamed_addr #4 comdat align 2 {
entry:
  %this.addr = alloca ptr, align 8
  %e.addr = alloca ptr, align 8
  store ptr %this, ptr %this.addr, align 8
  store ptr %e, ptr %e.addr, align 8
  %this1 = load ptr, ptr %this.addr, align 8
  %0 = load ptr, ptr %e.addr, align 8
  %d_nv = getelementptr inbounds %"class.cvc5::internal::NodeTemplate", ptr %0, i32 0, i32 0
  %1 = load ptr, ptr %d_nv, align 8
  %d_nv2 = getelementptr inbounds %"class.cvc5::internal::NodeTemplate", ptr %this1, i32 0, i32 0
  store ptr %1, ptr %d_nv2, align 8
  %d_nv3 = getelementptr inbounds %"class.cvc5::internal::NodeTemplate", ptr %this1, i32 0, i32 0
  %2 = load ptr, ptr %d_nv3, align 8
  call void @_ZN4cvc58internal4expr9NodeValue3incEv(ptr noundef nonnull align 8 dereferenceable(16) %2)
  ret void
}

; Function Attrs: mustprogress uwtable
define hidden void @_ZN4cvc58internal6theory11quantifiers18EnumStreamConcrete10getCurrentEv(ptr noalias sret(%"class.cvc5::internal::NodeTemplate") align 8 %agg.result, ptr noundef nonnull align 8 dereferenceable(480) %this) unnamed_addr #4 align 2 {
entry:
  %result.ptr = alloca ptr, align 8
  %this.addr = alloca ptr, align 8
  store ptr %agg.result, ptr %result.ptr, align 8
  store ptr %this, ptr %this.addr, align 8
  %this1 = load ptr, ptr %this.addr, align 8
  %d_currTerm = getelementptr inbounds %"class.cvc5::internal::theory::quantifiers::EnumStreamConcrete", ptr %this1, i32 0, i32 2
  call void @_ZN4cvc58internal12NodeTemplateILb1EEC2ERKS2_(ptr noundef nonnull align 8 dereferenceable(8) %agg.result, ptr noundef nonnull align 8 dereferenceable(8) %d_currTerm)
  ret void
}